; Function Attrs: mustprogress uwtable
define void @_ZN6icu_776number4impl6DecNum5setToEdR10UErrorCode(ptr noundef nonnull align 8 dereferenceable(92) %0, double noundef %1, ptr noundef nonnull writeonly align 4 captures(none) dereferenceable(4) %2) local_unnamed_addr #1 align 2 {
  %4 = alloca [23 x i8], align 16
  %5 = alloca i8, align 1
  %6 = alloca i32, align 4
  %7 = alloca i32, align 4
  %8 = tail call double @llvm.fabs.f64(double %1)
  %9 = fcmp ueq double %8, 0x7FF0000000000000
  br i1 %9, label %10, label %11

10:                                               ; preds = %3
  store i32 16, ptr %2, align 4, !tbaa !13
  br label %42

11:                                               ; preds = %3
  call void @llvm.lifetime.start.p0(i64 23, ptr nonnull %4) #14
  call void @llvm.lifetime.start.p0(i64 1, ptr nonnull %5) #14
  call void @llvm.lifetime.start.p0(i64 4, ptr nonnull %6) #14
  call void @llvm.lifetime.start.p0(i64 4, ptr nonnull %7) #14
  call void @_ZN6icu_7717double_conversion23DoubleToStringConverter13DoubleToAsciiEdNS1_8DtoaModeEiPciPbPiS5_(double noundef %1, i32 noundef 0, i32 noundef 0, ptr noundef nonnull %4, i32 noundef 23, ptr noundef nonnull %5, ptr noundef nonnull %6, ptr noundef nonnull %7)
  %12 = load i32, ptr %6, align 4, !tbaa !12
  %13 = icmp sgt i32 %12, 34
  br i1 %13, label %14, label %._ZN6icu_7724MaybeStackHeaderAndArrayI9decNumbercLi34EE6resizeEii.exit.i_crit_edge

._ZN6icu_7724MaybeStackHeaderAndArrayI9decNumbercLi34EE6resizeEii.exit.i_crit_edge: ; preds = %11
  %.pre = load ptr, ptr %0, align 8, !tbaa !24
  br label %_ZN6icu_7724MaybeStackHeaderAndArrayI9decNumbercLi34EE6resizeEii.exit.i

14:                                               ; preds = %11
  %narrow.i.i = add nuw i32 %12, 12
  %15 = zext i32 %narrow.i.i to i64
  %16 = call noalias ptr @uprv_malloc_77(i64 noundef %15) #15
  %.not.i.i = icmp eq ptr %16, null
  %.pre8 = load ptr, ptr %0, align 8, !tbaa !24
  br i1 %.not.i.i, label %_ZN6icu_7724MaybeStackHeaderAndArrayI9decNumbercLi34EE6resizeEii.exit.i, label %17

17:                                               ; preds = %14
  call void @llvm.memcpy.p0.p0.i64(ptr noundef nonnull align 4 dereferenceable(12) %16, ptr noundef nonnull align 4 dereferenceable(12) %.pre8, i64 12, i1 false)
  %18 = getelementptr inbounds nuw i8, ptr %0, i64 12
  %19 = load i8, ptr %18, align 4, !tbaa !28
  %.not.i.i.i = icmp eq i8 %19, 0
  br i1 %.not.i.i.i, label %_ZN6icu_7724MaybeStackHeaderAndArrayI9decNumbercLi34EE13releaseMemoryEv.exit.i.i, label %20

20:                                               ; preds = %17
  call void @uprv_free_77(ptr noundef nonnull %.pre8)
  br label %_ZN6icu_7724MaybeStackHeaderAndArrayI9decNumbercLi34EE13releaseMemoryEv.exit.i.i

_ZN6icu_7724MaybeStackHeaderAndArrayI9decNumbercLi34EE13releaseMemoryEv.exit.i.i: ; preds = %20, %17
  store ptr %16, ptr %0, align 8, !tbaa !24
  %21 = getelementptr inbounds nuw i8, ptr %0, i64 8
  store i32 %12, ptr %21, align 8, !tbaa !27
  store i8 1, ptr %18, align 4, !tbaa !28
  br label %_ZN6icu_7724MaybeStackHeaderAndArrayI9decNumbercLi34EE6resizeEii.exit.i

_ZN6icu_7724MaybeStackHeaderAndArrayI9decNumbercLi34EE6resizeEii.exit.i: ; preds = %._ZN6icu_7724MaybeStackHeaderAndArrayI9decNumbercLi34EE6resizeEii.exit.i_crit_edge, %_ZN6icu_7724MaybeStackHeaderAndArrayI9decNumbercLi34EE13releaseMemoryEv.exit.i.i, %14
  %22 = phi ptr [ %.pre8, %14 ], [ %16, %_ZN6icu_7724MaybeStackHeaderAndArrayI9decNumbercLi34EE13releaseMemoryEv.exit.i.i ], [ %.pre, %._ZN6icu_7724MaybeStackHeaderAndArrayI9decNumbercLi34EE6resizeEii.exit.i_crit_edge ]
  %.sink.i = phi i32 [ %12, %14 ], [ %12, %_ZN6icu_7724MaybeStackHeaderAndArrayI9decNumbercLi34EE13releaseMemoryEv.exit.i.i ], [ 34, %._ZN6icu_7724MaybeStackHeaderAndArrayI9decNumbercLi34EE6resizeEii.exit.i_crit_edge ]
  %23 = getelementptr inbounds nuw i8, ptr %0, i64 64
  store i32 %.sink.i, ptr %23, align 8, !tbaa !35
  %24 = call ptr @uprv_decNumberFromString_77(ptr noundef %22, ptr noundef nonnull %4, ptr noundef nonnull %23)
  %25 = getelementptr inbounds nuw i8, ptr %0, i64 84
  %26 = load i32, ptr %25, align 4, !tbaa !36
  %27 = and i32 %26, 1
  %.not.i = icmp eq i32 %27, 0
  br i1 %.not.i, label %28, label %.sink.split.i

28:                                               ; preds = %_ZN6icu_7724MaybeStackHeaderAndArrayI9decNumbercLi34EE6resizeEii.exit.i
  %.not6.i = icmp eq i32 %26, 0
  br i1 %.not6.i, label %_ZN6icu_776number4impl6DecNum6_setToEPKciR10UErrorCode.exit, label %.sink.split.i

.sink.split.i:                                    ; preds = %28, %_ZN6icu_7724MaybeStackHeaderAndArrayI9decNumbercLi34EE6resizeEii.exit.i
  %.sink8.i = phi i32 [ 65808, %_ZN6icu_7724MaybeStackHeaderAndArrayI9decNumbercLi34EE6resizeEii.exit.i ], [ 16, %28 ]
  store i32 %.sink8.i, ptr %2, align 4, !tbaa !13
  br label %_ZN6icu_776number4impl6DecNum6_setToEPKciR10UErrorCode.exit

_ZN6icu_776number4impl6DecNum6_setToEPKciR10UErrorCode.exit: ; preds = %28, %.sink.split.i
  %29 = load i32, ptr %7, align 4, !tbaa !12
  %30 = load i32, ptr %6, align 4, !tbaa !12
  %31 = sub i32 %29, %30
  %32 = load ptr, ptr %0, align 8, !tbaa !24
  %33 = getelementptr inbounds nuw i8, ptr %32, i64 4
  %34 = load i32, ptr %33, align 4, !tbaa !37
  %35 = add nsw i32 %31, %34
  store i32 %35, ptr %33, align 4, !tbaa !37
  %36 = bitcast double %1 to i64
  %37 = icmp slt i64 %36, 0
  %38 = select i1 %37, i8 -128, i8 0
  %39 = getelementptr inbounds nuw i8, ptr %32, i64 8
  %40 = load i8, ptr %39, align 4, !tbaa !38
  %41 = or i8 %40, %38
  store i8 %41, ptr %39, align 4, !tbaa !38
  call void @llvm.lifetime.end.p0(i64 4, ptr nonnull %7) #14
  call void @llvm.lifetime.end.p0(i64 4, ptr nonnull %6) #14
  call void @llvm.lifetime.end.p0(i64 1, ptr nonnull %5) #14
  call void @llvm.lifetime.end.p0(i64 23, ptr nonnull %4) #14
  br label %42

42:                                               ; preds = %_ZN6icu_776number4impl6DecNum6_setToEPKciR10UErrorCode.exit, %10
  ret void
}